; Function Attrs: mustprogress uwtable
define void @_ZN3gmx18InMemorySerializerC2ENS_18EndianSwapBehaviorE(ptr nocapture noundef nonnull writeonly align 8 dereferenceable(16) %0, i32 noundef %1) unnamed_addr #1 align 2 personality ptr @__gxx_personality_v0 {
  store ptr getelementptr inbounds inrange(-16, 160) ({ [22 x ptr] }, ptr @_ZTVN3gmx18InMemorySerializerE, i64 0, i32 0, i64 2), ptr %0, align 8
  %3 = tail call noalias noundef nonnull dereferenceable(32) ptr @_Znwm(i64 noundef 32) #16
  tail call void @_ZNSaIcEC2Ev(ptr noundef nonnull align 1 dereferenceable(1) %3) #14
  tail call void @llvm.memset.p0.i64(ptr noundef nonnull align 8 dereferenceable(24) %3, i8 0, i64 24, i1 false)
  switch i32 %1, label %5 [
    i32 2, label %6
    i32 3, label %4
  ]

4:                                                ; preds = %2
  br label %6

5:                                                ; preds = %2
  br label %6

6:                                                ; preds = %5, %4, %2
  %.0.i.i = phi i32 [ 1, %4 ], [ %1, %5 ], [ 0, %2 ]
  %7 = getelementptr inbounds i8, ptr %3, i64 24
  store i32 %.0.i.i, ptr %7, align 8
  %8 = getelementptr inbounds i8, ptr %0, i64 8
  store ptr %3, ptr %8, align 8
  ret void
}